; Function Attrs: mustprogress nounwind uwtable
define hidden void @_ZNK4LIEF5MachO8DyldInfo9show_trieERSoNSt7__cxx1112basic_stringIcSt11char_traitsIcESaIcEEERNS_12BinaryStreamEmmRKS8_(ptr noundef nonnull readnone align 8 captures(none) dereferenceable(240) %0, ptr noundef nonnull align 8 dereferenceable(8) %1, ptr noundef %2, ptr noundef nonnull align 8 dereferenceable(24) %3, i64 noundef %4, i64 noundef %5, ptr noundef nonnull align 8 dereferenceable(32) %6) local_unnamed_addr #1 align 2 {
  %8 = alloca %"class.std::__cxx11::basic_string", align 8
  %9 = getelementptr inbounds nuw i8, ptr %8, i64 16
  store ptr %9, ptr %8, align 8, !tbaa !72
  %10 = load ptr, ptr %2, align 8, !tbaa !134
  %11 = getelementptr inbounds nuw i8, ptr %2, i64 16
  %12 = icmp eq ptr %10, %11
  br i1 %12, label %13, label %_ZNKSt7__cxx1112basic_stringIcSt11char_traitsIcESaIcEE11_M_is_localEv.exit.i

13:                                               ; preds = %7
  %14 = getelementptr inbounds nuw i8, ptr %2, i64 8
  %15 = load i64, ptr %14, align 8, !tbaa !74
  %16 = icmp ult i64 %15, 16
  call void @llvm.assume(i1 %16)
  %17 = add nuw nsw i64 %15, 1
  call void @llvm.memcpy.p0.p0.i64(ptr noundef nonnull align 8 dereferenceable(1) %9, ptr noundef nonnull align 8 dereferenceable(1) %11, i64 %17, i1 false)
  br label %_ZNSt7__cxx1112basic_stringIcSt11char_traitsIcESaIcEEC2EOS4_.exit

_ZNKSt7__cxx1112basic_stringIcSt11char_traitsIcESaIcEE11_M_is_localEv.exit.i: ; preds = %7
  store ptr %10, ptr %8, align 8, !tbaa !134
  %18 = load i64, ptr %11, align 8, !tbaa !76
  store i64 %18, ptr %9, align 8, !tbaa !76
  %.phi.trans.insert = getelementptr inbounds nuw i8, ptr %2, i64 8
  %.pre = load i64, ptr %.phi.trans.insert, align 8, !tbaa !74
  br label %_ZNSt7__cxx1112basic_stringIcSt11char_traitsIcESaIcEEC2EOS4_.exit

_ZNSt7__cxx1112basic_stringIcSt11char_traitsIcESaIcEEC2EOS4_.exit: ; preds = %13, %_ZNKSt7__cxx1112basic_stringIcSt11char_traitsIcESaIcEE11_M_is_localEv.exit.i
  %19 = phi i64 [ %15, %13 ], [ %.pre, %_ZNKSt7__cxx1112basic_stringIcSt11char_traitsIcESaIcEE11_M_is_localEv.exit.i ]
  %20 = getelementptr inbounds nuw i8, ptr %2, i64 8
  %21 = getelementptr inbounds nuw i8, ptr %8, i64 8
  store i64 %19, ptr %21, align 8, !tbaa !74
  store ptr %11, ptr %2, align 8, !tbaa !134
  store i64 0, ptr %20, align 8, !tbaa !74
  store i8 0, ptr %11, align 1, !tbaa !76
  call void @_ZN4LIEF5MachO9show_trieERSoNSt7__cxx1112basic_stringIcSt11char_traitsIcESaIcEEERNS_12BinaryStreamEmmRKS7_(ptr noundef nonnull align 8 dereferenceable(8) %1, ptr noundef nonnull %8, ptr noundef nonnull align 8 dereferenceable(24) %3, i64 noundef %4, i64 noundef %5, ptr noundef nonnull align 8 dereferenceable(32) %6) #24
  %22 = load ptr, ptr %8, align 8, !tbaa !134
  %23 = icmp eq ptr %22, %9
  br i1 %23, label %_ZNKSt7__cxx1112basic_stringIcSt11char_traitsIcESaIcEE11_M_is_localEv.exit.thread.i.i, label %_ZNKSt7__cxx1112basic_stringIcSt11char_traitsIcESaIcEE11_M_is_localEv.exit.i.i

_ZNKSt7__cxx1112basic_stringIcSt11char_traitsIcESaIcEE11_M_is_localEv.exit.thread.i.i: ; preds = %_ZNSt7__cxx1112basic_stringIcSt11char_traitsIcESaIcEEC2EOS4_.exit
  %24 = load i64, ptr %21, align 8, !tbaa !74
  %25 = icmp ult i64 %24, 16
  call void @llvm.assume(i1 %25)
  br label %_ZNSt7__cxx1112basic_stringIcSt11char_traitsIcESaIcEED2Ev.exit

_ZNKSt7__cxx1112basic_stringIcSt11char_traitsIcESaIcEE11_M_is_localEv.exit.i.i: ; preds = %_ZNSt7__cxx1112basic_stringIcSt11char_traitsIcESaIcEEC2EOS4_.exit
  %26 = load i64, ptr %9, align 8, !tbaa !76
  %27 = add i64 %26, 1
  call void @_ZdlPvm(ptr noundef %22, i64 noundef %27) #25
  br label %_ZNSt7__cxx1112basic_stringIcSt11char_traitsIcESaIcEED2Ev.exit

_ZNSt7__cxx1112basic_stringIcSt11char_traitsIcESaIcEED2Ev.exit: ; preds = %_ZNKSt7__cxx1112basic_stringIcSt11char_traitsIcESaIcEE11_M_is_localEv.exit.thread.i.i, %_ZNKSt7__cxx1112basic_stringIcSt11char_traitsIcESaIcEE11_M_is_localEv.exit.i.i
  ret void
}